; Function Attrs: mustprogress uwtable
define hidden void @_ZN17bv2int_translator14internalize_bvEP3app(ptr noundef nonnull align 8 dereferenceable(177) %0, ptr noundef %1) local_unnamed_addr #3 align 2 personality ptr @__gxx_personality_v0 {
  %3 = alloca %class.push_back_vector, align 8
  tail call void @_ZN17bv2int_translator17ensure_translatedEP4expr(ptr noundef nonnull align 8 dereferenceable(177) %0, ptr noundef %1)
  %4 = load ptr, ptr %0, align 8, !tbaa !65
  %5 = tail call noundef zeroext i1 @_ZNK11ast_manager7is_boolEPK4expr(ptr noundef nonnull align 8 dereferenceable(976) %4, ptr noundef %1)
  br i1 %5, label %6, label %34

6:                                                ; preds = %2
  %7 = getelementptr inbounds nuw i8, ptr %0, i64 160
  %.not.i.i.i.i = icmp eq ptr %1, null
  br i1 %.not.i.i.i.i, label %_ZN15ref_vector_coreI4expr19ref_manager_wrapperIS0_11ast_managerEE7inc_refEPS0_.exit.i, label %8

8:                                                ; preds = %6
  %9 = getelementptr inbounds nuw i8, ptr %1, i64 8
  %10 = load i32, ptr %9, align 4, !tbaa !47
  %11 = add i32 %10, 1
  store i32 %11, ptr %9, align 4, !tbaa !47
  br label %_ZN15ref_vector_coreI4expr19ref_manager_wrapperIS0_11ast_managerEE7inc_refEPS0_.exit.i

_ZN15ref_vector_coreI4expr19ref_manager_wrapperIS0_11ast_managerEE7inc_refEPS0_.exit.i: ; preds = %8, %6
  %12 = getelementptr inbounds nuw i8, ptr %0, i64 168
  %13 = load ptr, ptr %12, align 8, !tbaa !17
  %14 = icmp eq ptr %13, null
  br i1 %14, label %21, label %15

15:                                               ; preds = %_ZN15ref_vector_coreI4expr19ref_manager_wrapperIS0_11ast_managerEE7inc_refEPS0_.exit.i
  %16 = getelementptr inbounds i8, ptr %13, i64 -4
  %17 = load i32, ptr %16, align 4, !tbaa !43
  %18 = getelementptr inbounds i8, ptr %13, i64 -8
  %19 = load i32, ptr %18, align 4, !tbaa !43
  %20 = icmp eq i32 %17, %19
  br i1 %20, label %21, label %_ZN15ref_vector_coreI4expr19ref_manager_wrapperIS0_11ast_managerEE9push_backEPS0_.exit

21:                                               ; preds = %15, %_ZN15ref_vector_coreI4expr19ref_manager_wrapperIS0_11ast_managerEE7inc_refEPS0_.exit.i
  tail call void @_ZN6vectorIP4exprLb0EjE13expand_vectorEv(ptr noundef nonnull align 8 dereferenceable(8) %12)
  %.pre.i.i = load ptr, ptr %12, align 8, !tbaa !17
  %.phi.trans.insert.i.i = getelementptr inbounds i8, ptr %.pre.i.i, i64 -4
  %.pre2.i.i = load i32, ptr %.phi.trans.insert.i.i, align 4, !tbaa !43
  br label %_ZN15ref_vector_coreI4expr19ref_manager_wrapperIS0_11ast_managerEE9push_backEPS0_.exit

_ZN15ref_vector_coreI4expr19ref_manager_wrapperIS0_11ast_managerEE9push_backEPS0_.exit: ; preds = %15, %21
  %22 = phi i32 [ %.pre2.i.i, %21 ], [ %17, %15 ]
  %23 = phi ptr [ %.pre.i.i, %21 ], [ %13, %15 ]
  %24 = getelementptr inbounds i8, ptr %23, i64 -4
  %25 = zext i32 %22 to i64
  %26 = getelementptr inbounds nuw ptr, ptr %23, i64 %25
  store ptr %1, ptr %26, align 8, !tbaa !44
  %27 = add i32 %22, 1
  store i32 %27, ptr %24, align 4, !tbaa !43
  %28 = getelementptr inbounds nuw i8, ptr %0, i64 8
  %29 = load ptr, ptr %28, align 8, !tbaa !57
  call void @llvm.lifetime.start.p0(i64 16, ptr nonnull %3) #23
  store ptr getelementptr inbounds nuw inrange(-16, 24) (i8, ptr @_ZTV16push_back_vectorI10ref_vectorI4expr11ast_managerEE, i64 16), ptr %3, align 8, !tbaa !58
  %30 = getelementptr inbounds nuw i8, ptr %3, i64 8
  store ptr %7, ptr %30, align 8, !tbaa !60
  %31 = load ptr, ptr %29, align 8, !tbaa !58
  %32 = getelementptr inbounds nuw i8, ptr %31, i64 16
  %33 = load ptr, ptr %32, align 8
  call void %33(ptr noundef nonnull align 8 dereferenceable(8) %29, ptr noundef nonnull align 8 dereferenceable(16) %3)
  call void @llvm.lifetime.end.p0(i64 16, ptr nonnull %3) #23
  br label %34

34:                                               ; preds = %_ZN15ref_vector_coreI4expr19ref_manager_wrapperIS0_11ast_managerEE9push_backEPS0_.exit, %2
  ret void
}